target datalayout = "e-m:e-p270:32:32-p271:32:32-p272:64:64-i64:64-i128:128-f80:128-n8:16:32:64-S128"
target triple = "x86_64-pc-linux-gnu"

%struct.ProfileState = type { ptr, ptr, ptr, %struct.SBuf, i32, i32, i32, %struct.sigaction }
%struct.SBuf = type { ptr, ptr, ptr, %struct.MRef }
%struct.MRef = type { i64 }
%struct.sigaction = type { %union.anon, %struct.__sigset_t, i32, ptr }
%union.anon = type { ptr }
%struct.__sigset_t = type { [16 x i64] }
%struct.lua_State = type { %struct.GCRef, i8, i8, i8, i8, %struct.MRef, %struct.GCRef, ptr, ptr, %struct.MRef, %struct.MRef, %struct.GCRef, %struct.GCRef, ptr, i32 }
%struct.GCRef = type { i64 }
%struct.global_State = type { ptr, ptr, %struct.GCState, %struct.GCstr, i8, i8, i8, i8, %struct.StrInternState, i32, %struct.GCRef, %struct.SBuf, %union.TValue, %union.TValue, %struct.Node, %union.TValue, %struct.GCupval, i32, i32, ptr, ptr, ptr, i32, i32, %struct.GCRef, %struct.MRef, %struct.MRef, %struct.PRNGState, [39 x %struct.GCRef] }
%struct.GCState = type { i64, i64, i8, i8, i8, i8, i32, %struct.GCRef, %struct.MRef, %struct.GCRef, %struct.GCRef, %struct.GCRef, %struct.GCRef, i64, i64, i32, i32, %struct.MRef }
%struct.GCstr = type { %struct.GCRef, i8, i8, i8, i8, i32, i32, i32 }
%struct.StrInternState = type { ptr, i32, i32, i32, i8, i8, i8, i8, i64 }
%struct.Node = type { %union.TValue, %union.TValue, %struct.MRef }
%union.TValue = type { i64 }
%struct.GCupval = type { %struct.GCRef, i8, i8, i8, i8, %union.anon.1, %struct.MRef, i32 }
%union.anon.1 = type { %struct.anon.2 }
%struct.anon.2 = type { %struct.GCRef, %struct.GCRef }
%struct.PRNGState = type { [4 x i64] }
%struct.GG_State = type { %struct.lua_State, %struct.global_State, %struct.jit_State, [64 x i16], [243 x ptr], [57 x i32] }
%struct.jit_State = type { %struct.GCtrace, ptr, ptr, ptr, ptr, ptr, ptr, i32, i32, i32, i8, i8, %struct.IRType1, i8, %struct.FoldState, ptr, i32, i32, i32, i32, i32, i32, i32, [1 x i32], [5 x %union.TValue], [3 x %union.TValue], ptr, i32, i32, i32, i32, ptr, ptr, i32, i32, i8, ptr, i32, i32, i16, [101 x i16], [258 x i32], [15 x i32], [16 x ptr], [64 x %struct.HotPenalty], i32, [16 x %struct.BPropEntry], i32, %struct.ScEvEntry, ptr, i32, i32, i32, ptr, i32, i32, ptr, ptr, ptr, i64, i64, %union.TValue, ptr, i32, i32 }
%struct.GCtrace = type { %struct.GCRef, i8, i8, i16, i32, i32, %struct.GCRef, ptr, i32, i32, ptr, ptr, %struct.GCRef, %struct.MRef, i32, i32, ptr, i32, i16, i16, i16, i16, i16, i16, i16, i8, i8, i8, i8 }
%struct.IRType1 = type { i8 }
%struct.FoldState = type { %union.IRIns, [2 x %union.IRIns], [2 x %union.IRIns] }
%union.IRIns = type { %struct.GCRef }
%struct.HotPenalty = type { %struct.MRef, i16, i16 }
%struct.BPropEntry = type { i16, i16, i32 }
%struct.ScEvEntry = type { %struct.MRef, i16, i16, i16, i16, %struct.IRType1, i8 }
%struct.itimerval = type { %struct.timeval, %struct.timeval }
%struct.timeval = type { i64, i64 }

@profile_state = internal global %struct.ProfileState zeroinitializer, align 8

; Function Attrs: alwaysinline nounwind uwtable
define internal void @lj_mem_free(ptr noundef %0, ptr noundef %1, i64 noundef %2) #3 {
  %4 = alloca ptr, align 8
  %5 = alloca ptr, align 8
  %6 = alloca i64, align 8
  store ptr %0, ptr %4, align 8, !tbaa !18
  store ptr %1, ptr %5, align 8, !tbaa !41
  store i64 %2, ptr %6, align 8, !tbaa !78
  %7 = load i64, ptr %6, align 8, !tbaa !78
  %8 = load ptr, ptr %4, align 8, !tbaa !18
  %9 = getelementptr inbounds nuw %struct.global_State, ptr %8, i32 0, i32 2
  %10 = getelementptr inbounds nuw %struct.GCState, ptr %9, i32 0, i32 0
  %11 = load i64, ptr %10, align 8, !tbaa !80
  %12 = sub i64 %11, %7
  store i64 %12, ptr %10, align 8, !tbaa !80
  %13 = load ptr, ptr %4, align 8, !tbaa !18
  %14 = getelementptr inbounds nuw %struct.global_State, ptr %13, i32 0, i32 0
  %15 = load ptr, ptr %14, align 8, !tbaa !81
  %16 = load ptr, ptr %4, align 8, !tbaa !18
  %17 = getelementptr inbounds nuw %struct.global_State, ptr %16, i32 0, i32 1
  %18 = load ptr, ptr %17, align 8, !tbaa !82
  %19 = load ptr, ptr %5, align 8, !tbaa !41
  %20 = load i64, ptr %6, align 8, !tbaa !78
  %21 = call ptr %15(ptr noundef %18, ptr noundef %19, i64 noundef %20, i64 noundef 0)
  ret void
}

; Function Attrs: alwaysinline nounwind uwtable
define internal void @lj_buf_free(ptr noundef %0, ptr noundef %1) #3 {
  %3 = alloca ptr, align 8
  %4 = alloca ptr, align 8
  store ptr %0, ptr %3, align 8, !tbaa !18
  store ptr %1, ptr %4, align 8, !tbaa !63
  %5 = load ptr, ptr %3, align 8, !tbaa !18
  %6 = load ptr, ptr %4, align 8, !tbaa !63
  %7 = getelementptr inbounds nuw %struct.SBuf, ptr %6, i32 0, i32 2
  %8 = load ptr, ptr %7, align 8, !tbaa !66
  %9 = load ptr, ptr %4, align 8, !tbaa !63
  %10 = getelementptr inbounds nuw %struct.SBuf, ptr %9, i32 0, i32 1
  %11 = load ptr, ptr %10, align 8, !tbaa !67
  %12 = load ptr, ptr %4, align 8, !tbaa !63
  %13 = getelementptr inbounds nuw %struct.SBuf, ptr %12, i32 0, i32 2
  %14 = load ptr, ptr %13, align 8, !tbaa !66
  %15 = ptrtoint ptr %11 to i64
  %16 = ptrtoint ptr %14 to i64
  %17 = sub i64 %15, %16
  %18 = trunc i64 %17 to i32
  %19 = zext i32 %18 to i64
  call void @lj_mem_free(ptr noundef %5, ptr noundef %8, i64 noundef %19)
  ret void
}

; Function Attrs: nounwind uwtable
define internal void @profile_timer_stop(ptr noundef %0) #0 {
  %2 = alloca ptr, align 8
  %3 = alloca %struct.itimerval, align 8
  store ptr %0, ptr %2, align 8, !tbaa !9
  call void @llvm.lifetime.start.p0(i64 32, ptr %3) #5
  %4 = getelementptr inbounds nuw %struct.itimerval, ptr %3, i32 0, i32 0
  %5 = getelementptr inbounds nuw %struct.timeval, ptr %4, i32 0, i32 0
  store i64 0, ptr %5, align 8, !tbaa !69
  %6 = getelementptr inbounds nuw %struct.itimerval, ptr %3, i32 0, i32 1
  %7 = getelementptr inbounds nuw %struct.timeval, ptr %6, i32 0, i32 0
  store i64 0, ptr %7, align 8, !tbaa !72
  %8 = getelementptr inbounds nuw %struct.itimerval, ptr %3, i32 0, i32 0
  %9 = getelementptr inbounds nuw %struct.timeval, ptr %8, i32 0, i32 1
  store i64 0, ptr %9, align 8, !tbaa !73
  %10 = getelementptr inbounds nuw %struct.itimerval, ptr %3, i32 0, i32 1
  %11 = getelementptr inbounds nuw %struct.timeval, ptr %10, i32 0, i32 1
  store i64 0, ptr %11, align 8, !tbaa !74
  %12 = call i32 @setitimer(i32 noundef 2, ptr noundef %3, ptr noundef null) #5
  %13 = load ptr, ptr %2, align 8, !tbaa !9
  %14 = getelementptr inbounds nuw %struct.ProfileState, ptr %13, i32 0, i32 7
  %15 = call i32 @sigaction(i32 noundef 27, ptr noundef %14, ptr noundef null) #5
  call void @llvm.lifetime.end.p0(i64 32, ptr %3) #5
  ret void
}

; Function Attrs: nounwind uwtable
define dso_local void @luaJIT_profile_stop(ptr noundef %0) #0 {
  %2 = alloca ptr, align 8
  %3 = alloca ptr, align 8
  %4 = alloca ptr, align 8
  store ptr %0, ptr %2, align 8, !tbaa !4
  call void @llvm.lifetime.start.p0(i64 8, ptr %3) #5
  store ptr @profile_state, ptr %3, align 8, !tbaa !9
  call void @llvm.lifetime.start.p0(i64 8, ptr %4) #5
  %5 = load ptr, ptr %3, align 8, !tbaa !9
  %6 = getelementptr inbounds nuw %struct.ProfileState, ptr %5, i32 0, i32 0
  %7 = load ptr, ptr %6, align 8, !tbaa !59
  store ptr %7, ptr %4, align 8, !tbaa !18
  %8 = load ptr, ptr %2, align 8, !tbaa !4
  %9 = getelementptr inbounds nuw %struct.lua_State, ptr %8, i32 0, i32 5
  %10 = getelementptr inbounds nuw %struct.MRef, ptr %9, i32 0, i32 0
  %11 = load i64, ptr %10, align 8, !tbaa !11
  %12 = inttoptr i64 %11 to ptr
  %13 = load ptr, ptr %4, align 8, !tbaa !18
  %14 = icmp eq ptr %12, %13
  br i1 %14, label %15, label %41

15:                                               ; preds = %1
  %16 = load ptr, ptr %3, align 8, !tbaa !9
  call void @profile_timer_stop(ptr noundef %16)
  %17 = load ptr, ptr %4, align 8, !tbaa !18
  %18 = getelementptr inbounds nuw %struct.global_State, ptr %17, i32 0, i32 5
  %19 = load i8, ptr %18, align 1, !tbaa !20
  %20 = zext i8 %19 to i32
  %21 = and i32 %20, -129
  %22 = trunc i32 %21 to i8
  store i8 %22, ptr %18, align 1, !tbaa !20
  %23 = load ptr, ptr %4, align 8, !tbaa !18
  call void @lj_dispatch_update(ptr noundef %23)
  %24 = load ptr, ptr %4, align 8, !tbaa !18
  %25 = getelementptr inbounds i8, ptr %24, i64 -96
  %26 = getelementptr inbounds nuw %struct.GG_State, ptr %25, i32 0, i32 2
  %27 = getelementptr inbounds nuw %struct.jit_State, ptr %26, i32 0, i32 64
  store i32 0, ptr %27, align 4, !tbaa !44
  %28 = load ptr, ptr %2, align 8, !tbaa !4
  %29 = call i32 @lj_trace_flushall(ptr noundef %28)
  %30 = load ptr, ptr %4, align 8, !tbaa !18
  %31 = load ptr, ptr %3, align 8, !tbaa !9
  %32 = getelementptr inbounds nuw %struct.ProfileState, ptr %31, i32 0, i32 3
  call void @lj_buf_free(ptr noundef %30, ptr noundef %32)
  %33 = load ptr, ptr %3, align 8, !tbaa !9
  %34 = getelementptr inbounds nuw %struct.ProfileState, ptr %33, i32 0, i32 3
  %35 = getelementptr inbounds nuw %struct.SBuf, ptr %34, i32 0, i32 1
  store ptr null, ptr %35, align 8, !tbaa !61
  %36 = load ptr, ptr %3, align 8, !tbaa !9
  %37 = getelementptr inbounds nuw %struct.ProfileState, ptr %36, i32 0, i32 3
  %38 = getelementptr inbounds nuw %struct.SBuf, ptr %37, i32 0, i32 0
  store ptr null, ptr %38, align 8, !tbaa !62
  %39 = load ptr, ptr %3, align 8, !tbaa !9
  %40 = getelementptr inbounds nuw %struct.ProfileState, ptr %39, i32 0, i32 0
  store ptr null, ptr %40, align 8, !tbaa !59
  br label %41

41:                                               ; preds = %15, %1
  call void @llvm.lifetime.end.p0(i64 8, ptr %4) #5
  call void @llvm.lifetime.end.p0(i64 8, ptr %3) #5
  ret void
}