; Function Attrs: nounwind uwtable
define dso_local void @luaJIT_profile_stop(ptr noundef %0) local_unnamed_addr #0 {
  %2 = alloca %struct.itimerval, align 8
  %3 = load ptr, ptr @profile_state, align 8, !tbaa !52
  %4 = getelementptr inbounds nuw i8, ptr %0, i64 16
  %5 = load i64, ptr %4, align 8, !tbaa !4
  %6 = inttoptr i64 %5 to ptr
  %7 = icmp eq ptr %3, %6
  br i1 %7, label %8, label %29

8:                                                ; preds = %1
  call void @llvm.lifetime.start.p0(i64 32, ptr nonnull %2) #7
  call void @llvm.memset.p0.i64(ptr noundef nonnull align 8 dereferenceable(32) %2, i8 0, i64 32, i1 false)
  %9 = call i32 @setitimer(i32 noundef 2, ptr noundef nonnull %2, ptr noundef null) #7
  %10 = tail call i32 @sigaction(i32 noundef 27, ptr noundef nonnull getelementptr inbounds nuw (i8, ptr @profile_state, i64 72), ptr noundef null) #7
  call void @llvm.lifetime.end.p0(i64 32, ptr nonnull %2) #7
  %11 = getelementptr inbounds nuw i8, ptr %3, i64 145
  %12 = load i8, ptr %11, align 1, !tbaa !14
  %13 = and i8 %12, 127
  store i8 %13, ptr %11, align 1, !tbaa !14
  tail call void @lj_dispatch_update(ptr noundef %3) #7
  %14 = getelementptr inbounds nuw i8, ptr %3, i64 3844
  store i32 0, ptr %14, align 4, !tbaa !36
  %15 = tail call i32 @lj_trace_flushall(ptr noundef nonnull %0) #7
  %16 = load ptr, ptr getelementptr inbounds nuw (i8, ptr @profile_state, i64 40), align 8, !tbaa !62
  %17 = load ptr, ptr getelementptr inbounds nuw (i8, ptr @profile_state, i64 32), align 8, !tbaa !63
  %18 = ptrtoint ptr %17 to i64
  %19 = ptrtoint ptr %16 to i64
  %20 = sub i64 %18, %19
  %21 = and i64 %20, 4294967295
  %22 = getelementptr inbounds nuw i8, ptr %3, i64 16
  %23 = load i64, ptr %22, align 8, !tbaa !64
  %24 = sub i64 %23, %21
  store i64 %24, ptr %22, align 8, !tbaa !64
  %25 = load ptr, ptr %3, align 8, !tbaa !65
  %26 = getelementptr inbounds nuw i8, ptr %3, i64 8
  %27 = load ptr, ptr %26, align 8, !tbaa !66
  %28 = tail call ptr %25(ptr noundef %27, ptr noundef %16, i64 noundef range(i64 0, 4294967296) %21, i64 noundef 0) #7
  store ptr null, ptr @profile_state, align 8, !tbaa !52
  tail call void @llvm.memset.p0.i64(ptr noundef nonnull align 8 dereferenceable(16) getelementptr inbounds nuw (i8, ptr @profile_state, i64 24), i8 0, i64 16, i1 false)
  br label %29

29:                                               ; preds = %8, %1
  ret void
}